(dp0
S'instruments'
p1
(lp2
(dp3
VdirName
p4
Vlris
p5
sVprotoDirs
p6
(lp7
V/s/sdata243/lris{accountID}/{date:%Y%b%d}{dateSuffix}
p8
asVtelescope
p9
I1
sVname
p10
VLRIS
p11
sa(dp12
VdirName
p13
Vesi
p14
sVprotoDirs
p15
(lp16
V/s/sdata703/esi{accountID}/{date:%Y%b%d}{dateSuffix}
p17
asVtelescope
p18
I2
sVname
p19
VESI
p20
sa(dp21
Vname
p22
VOSIRIS
p23
sVdirName
p24
Vosiris
p25
sVtelescope
p26
I1
sVinstrAttr
p27
(lp28
I0
aVCURRINST
p29
asVprotoDirs
p30
(lp31
V/s/sdata1100/osiris{accountID}/{date:%y%m%d}{dateSuffix}/IMAG/raw
p32
aV/s/sdata1100/osiris{accountID}/{date:%y%m%d}{dateSuffix}/SPEC/raw
p33
asa(dp34
VdirName
p35
Vhires
p36
sVfnamePattern
p37
Vj*.fits
p38
sVtelescope
p39
L1L
sVname
p40
VHIRES
p41
sVprotoDirs
p42
(lp43
V/s/sdata125/hires{accountID}/{date:%Y%b%d}{dateSuffix}
p44
aV/s/sdata126/hires{accountID}/{date:%Y%b%d}{dateSuffix}
p45
aV/s/sdata127/hires{accountID}/{date:%Y%b%d}{dateSuffix}
p46
asa(dp47
Vmissing_end_card
p48
I01
sVtelescope
p49
I2
sVprotoDirs
p50
(lp51
V/s/sdata600/nirspec/{date:%Y%b%d}{dateSuffix}/spec
p52
aV/s/sdata600/nirspec/{date:%Y%b%d}{dateSuffix}/scam
p53
aV/s/sdata602/nirspec/{date:%Y%b%d}{dateSuffix}/spec
p54
aV/s/sdata602/nirspec/{date:%Y%b%d}{dateSuffix}/scam
p55
aV/s/sdata603/nirspec/{date:%Y%b%d}{dateSuffix}/spec
p56
aV/s/sdata603/nirspec/{date:%Y%b%d}{dateSuffix}/scam
p57
asVdirName
p58
Vnirspec
p59
sVinstrAttr
p60
(lp61
I0
aVCURRINST
p62
asVname
p63
VNIRSPEC
p64
sa(dp65
Vmissing_end_card
p66
I01
sVtelescope
p67
L2L
sVprotoDirs
p68
(lp69
V/s/sdata600/nirspec/{date:%Y%b%d}{dateSuffix}/spec
p70
aV/s/sdata600/nirspec/{date:%Y%b%d}{dateSuffix}/scam
p71
aV/s/sdata602/nirspec/{date:%Y%b%d}{dateSuffix}/spec
p72
aV/s/sdata602/nirspec/{date:%Y%b%d}{dateSuffix}/scam
p73
aV/s/sdata603/nirspec/{date:%Y%b%d}{dateSuffix}/spec
p74
aV/s/sdata603/nirspec/{date:%Y%b%d}{dateSuffix}/scam
p75
asValternateName
p76
VNIRSPEC
p77
sVdirName
p78
Vnirspec
p79
sVinstrAttr
p80
(lp81
L0L
aVCURRINST
p82
asVname
p83
VNIRSPAO
p84
sa(dp85
Vmissing_end_card
p86
I01
sVtelescope
p87
L2L
sVprotoDirs
p88
(lp89
V/s/sdata901/nirc{accountID}/{date:%Y%b%d}{dateSuffix}
p90
aV/s/sdata902/nirc{accountID}/{date:%Y%b%d}{dateSuffix}
p91
aV/s/sdata903/nirc{accountID}/{date:%Y%b%d}{dateSuffix}
p92
aV/s/sdata904/nirc{accountID}/{date:%Y%b%d}{dateSuffix}
p93
asVdirName
p94
Vnirc
p95
sVinstrAttr
p96
(lp97
L0L
aVCURRINST
p98
asVname
p99
VNIRC2
p100
sa(dp101
VfnamePattern
p102
Vd????_????.fits
p103
sVdirName
p104
Vdeimos
p105
sVprotoDirs
p106
(lp107
V/s/sdata1001/deimos{accountID}/{date:%Y%b%d}{dateSuffix}
p108
aV/s/sdata1002/deimos{accountID}/{date:%Y%b%d}{dateSuffix}
p109
aV/s/sdata1003/deimos{accountID}/{date:%Y%b%d}{dateSuffix}
p110
asVtelescope
p111
L2L
sVname
p112
VDEIMOS
p113
sa(dp114
VfnamePattern
p115
Vm??????_????.fits
p116
sVdirName
p117
Vmosfire
p118
sVprotoDirs
p119
(lp120
V/s/sdata1300/mosfire{accountID}/{date:%Y%b%d}{dateSuffix}
p121
asVtelescope
p122
L1L
sVname
p123
VMOSFIRE
p124
sasS'fitsViews'
p125
(lp126
(dp127
Vinstrument
p128
Vall
p129
sVname
p130
Vfilenames
p131
sVcolumns
p132
(lp133
(dp134
Vwidth
p135
I200
sVfitsAttr
p136
(lp137
Vfilename
p138
asVname
p139
VFilename
p140
sasa(dp141
Vinstrument
p142
VLRIS
p143
sVname
p144
Vdefault
p145
sVcolumns
p146
(lp147
(dp148
Vwidth
p149
I150
sVfitsAttr
p150
(lp151
Vfilename
p152
asVname
p153
VFilename
p154
sa(dp155
Vwidth
p156
I150
sVfitsAttr
p157
(lp158
Vheaders
p159
aI0
aVOBJECT
p160
asVname
p161
Vobject
p162
sa(dp163
Vwidth
p164
I40
sVfitsAttr
p165
(lp166
Vheaders
p167
aI0
aVTTIME
p168
asVname
p169
Vt (s)
p170
sa(dp171
Vwidth
p172
I120
sVfitsAttr
p173
(lp174
Vheaders
p175
aI0
aVUTC
p176
asVname
p177
VUTC
p178
sa(dp179
Vwidth
p180
I120
sVfitsAttr
p181
(lp182
Vheaders
p183
aI0
aVAIRMASS
p184
asVname
p185
VAirmass
p186
sa(dp187
Vwidth
p188
I120
sVfitsAttr
p189
(lp190
Vheaders
p191
aI0
aVHA
p192
asVname
p193
VHA
p194
sa(dp195
Vwidth
p196
I120
sVfitsAttr
p197
(lp198
Vheaders
p199
aI0
aVSLITNAME
p200
asVname
p201
VSlitmask
p202
sa(dp203
Vwidth
p204
I60
sVfitsAttr
p205
(lp206
Vheaders
p207
aI0
aVDICHNAME
p208
asVname
p209
VDichroic
p210
sa(dp211
Vwidth
p212
I100
sVfitsAttr
p213
(lp214
Vheaders
p215
aI0
aVGRISNAME
p216
asVname
p217
VGrism
p218
sa(dp219
Vwidth
p220
I100
sVfitsAttr
p221
(lp222
Vheaders
p223
aI0
aVGRANAME
p224
asVname
p225
VGrating
p226
sa(dp227
Vwidth
p228
I80
sVname
p229
VFilter
p230
sVcondAttr
p231
(dp232
VLRISBLUE
p233
(lp234
Vheaders
p235
aI0
aVBLUFILT
p236
asVtag
p237
VLRISFILTER
p238
sVattr
p239
(lp240
Vheaders
p241
aI0
aVINSTRUME
p242
asVLRIS
p243
(lp244
Vheaders
p245
aI0
aVREDFILT
p246
assa(dp247
Vwidth
p248
I120
sVname
p249
VFocus
p250
sVcondAttr
p251
(dp252
VLRISBLUE
p253
(lp254
Vheaders
p255
aI0
aVBLUFOCUS
p256
asVtag
p257
VLRISFOCUS
p258
sVattr
p259
(lp260
Vheaders
p261
aI0
aVINSTRUME
p262
asVLRIS
p263
(lp264
Vheaders
p265
aI0
aVREDFOCUS
p266
assasa(dp267
Vinstrument
p268
VNIRSPAO
p269
sVname
p270
Vdefault
p271
sVcolumns
p272
(lp273
(dp274
Vwidth
p275
I150
sVfitsAttr
p276
(lp277
Vfilename
p278
asVname
p279
VFilename
p280
sa(dp281
Vwidth
p282
I120
sVfitsAttr
p283
(lp284
Vheaders
p285
aI0
aVUTC
p286
asVname
p287
VUT Time
p288
sa(dp289
Vwidth
p290
I150
sVfitsAttr
p291
(lp292
Vheaders
p293
aI0
aVOBJECT
p294
asVname
p295
VObject
p296
sa(dp297
Vwidth
p298
I80
sVfitsAttr
p299
(lp300
Vheaders
p301
aI0
aVAIRMASS
p302
asVname
p303
VAirmass
p304
sa(dp305
Vwidth
p306
I60
sVfitsAttr
p307
(lp308
Vheaders
p309
aI0
aVITIME
p310
asVname
p311
VItime
p312
sa(dp313
Vwidth
p314
I60
sVfitsAttr
p315
(lp316
Vheaders
p317
aI0
aVCOADDS
p318
asVname
p319
VCoadds
p320
sa(dp321
Vwidth
p322
I60
sVfitsAttr
p323
(lp324
Vheaders
p325
aI0
aVMULTISPE
p326
asVname
p327
VReads
p328
sa(dp329
Vwidth
p330
I100
sVfitsAttr
p331
(lp332
Vheaders
p333
aI0
aVSLITNAME
p334
asVname
p335
VSlit
p336
sa(dp337
Vwidth
p338
I120
sVfitsAttr
p339
(lp340
Vheaders
p341
aI0
aVFILNAME
p342
asVname
p343
VFilter
p344
sa(dp345
Vwidth
p346
I60
sVfitsAttr
p347
(lp348
Vheaders
p349
aI0
aVECHLPOS
p350
asVname
p351
VEchelle Angle
p352
sa(dp353
Vwidth
p354
I60
sVfitsAttr
p355
(lp356
Vheaders
p357
aI0
aVDISPPOS
p358
asVname
p359
VX-disp Angle
p360
sasa(dp361
Vinstrument
p362
VOSIRIS
p363
sVname
p364
Vdefault
p365
sVcolumns
p366
(lp367
(dp368
Vwidth
p369
I50
sVfitsAttr
p370
(lp371
Vheaders
p372
aI0
aVINSTR
p373
asVname
p374
VS/I
p375
sa(dp376
Vwidth
p377
I200
sVfitsAttr
p378
(lp379
Vfilename
p380
asVname
p381
VFilename
p382
sa(dp383
Vwidth
p384
I150
sVfitsAttr
p385
(lp386
Vheaders
p387
aI0
aVOBJECT
p388
asVname
p389
VObject
p390
sa(dp391
Vwidth
p392
I120
sVfitsAttr
p393
(lp394
Vheaders
p395
aI0
aVUTC
p396
asVname
p397
VUTC
p398
sa(dp399
Vwidth
p400
I80
sVfitsAttr
p401
(lp402
Vheaders
p403
aI0
aVAIRMASS
p404
asVname
p405
VAirmass
p406
sa(dp407
Vwidth
p408
I90
sVfitsAttr
p409
(lp410
Vheaders
p411
aI0
aVPONAME
p412
asVname
p413
VPO
p414
sa(dp415
VcondAttr
p416
(dp417
Vimag
p418
(lp419
Vheaders
p420
aI0
aVPA_IMAG
p421
asVtag
p422
VPA
p423
sVspec
p424
(lp425
Vheaders
p426
aI0
aVPA_SPEC
p427
asVattr
p428
(lp429
Vheaders
p430
aI0
aVINSTR
p431
assVname
p432
VPA
p433
sVwidth
p434
I60
sa(dp435
VcondAttr
p436
(dp437
Vimag
p438
(lp439
Vheaders
p440
aI0
aVIFILTER
p441
asVtag
p442
VFILTER
p443
sVspec
p444
(lp445
Vheaders
p446
aI0
aVSFILTER
p447
asVattr
p448
(lp449
Vheaders
p450
aI0
aVINSTR
p451
assVname
p452
VFilter
p453
sVwidth
p454
I100
sa(dp455
VcondAttr
p456
(dp457
Vtag
p458
VSCALE
p459
sVspec
p460
(lp461
Vheaders
p462
aI0
aVSSCALE
p463
asVattr
p464
(lp465
Vheaders
p466
aI0
aVINSTR
p467
assVname
p468
VScale
p469
sVwidth
p470
I100
sa(dp471
Vwidth
p472
I60
sVfitsAttr
p473
(lp474
Vheaders
p475
aI0
aVITIME
p476
asVname
p477
VItime
p478
sa(dp479
Vwidth
p480
I60
sVfitsAttr
p481
(lp482
Vheaders
p483
aI0
aVCOADDS
p484
asVname
p485
VCoadds
p486
sa(dp487
Vwidth
p488
I60
sVfitsAttr
p489
(lp490
Vheaders
p491
aI0
aVWSFRRT
p492
asVname
p493
VWFS Rate
p494
sa(dp495
Vwidth
p496
I60
sVname
p497
VSky
p498
sVenumAttr
p499
(dp500
V1
p501
Vsky
p502
sV0
p503
V
p504
sVattr
p505
(lp506
Vheaders
p507
aI0
aVISSKY
p508
assasa(dp509
Vinstrument
p510
VNIRSPEC
p511
sVname
p512
Vnirspec
p513
sVcolumns
p514
(lp515
(dp516
Vwidth
p517
L150L
sVfitsAttr
p518
(lp519
Vfilename
p520
asVname
p521
VFilename
p522
sa(dp523
Vwidth
p524
L120L
sVfitsAttr
p525
(lp526
Vheaders
p527
aL0L
aVUTC
p528
asVname
p529
VUT Time
p530
sa(dp531
Vwidth
p532
L150L
sVfitsAttr
p533
(lp534
Vheaders
p535
aL0L
aVOBJECT
p536
asVname
p537
VObject
p538
sa(dp539
Vwidth
p540
L150L
sVfitsAttr
p541
(lp542
Vheaders
p543
aL0L
aVCOMMENT
p544
asVname
p545
VComment
p546
sa(dp547
Vwidth
p548
L80L
sVfitsAttr
p549
(lp550
Vheaders
p551
aL0L
aVAIRMASS
p552
asVname
p553
VAirmass
p554
sa(dp555
Vwidth
p556
L60L
sVname
p557
VItime
p558
sVcondAttr
p559
(dp560
V1024
p561
(lp562
Vheaders
p563
aL0L
aVITIME
p564
asVtag
p565
Vtime
p566
sV256
p567
(lp568
Vheaders
p569
aL0L
aVITIME2
p570
asVattr
p571
(lp572
Vheaders
p573
aL0L
aVNAXIS1
p574
assa(dp575
Vwidth
p576
L60L
sVname
p577
VCoadds
p578
sVcondAttr
p579
(dp580
V1024
p581
(lp582
Vheaders
p583
aL0L
aVCOADDS
p584
asVtag
p585
Vcoadds
p586
sV256
p587
(lp588
Vheaders
p589
aL0L
aVCOADDS2
p590
asVattr
p591
(lp592
Vheaders
p593
aL0L
aVNAXIS1
p594
assa(dp595
Vwidth
p596
L60L
sVname
p597
VReads
p598
sVcondAttr
p599
(dp600
V1024
p601
(lp602
Vheaders
p603
aL0L
aVMULTISPE
p604
asVtag
p605
Vreads
p606
sV256
p607
(lp608
Vheaders
p609
aL0L
aVMULTISCA
p610
asVattr
p611
(lp612
Vheaders
p613
aL0L
aVNAXIS1
p614
assa(dp615
Vwidth
p616
L100L
sVfitsAttr
p617
(lp618
Vheaders
p619
aL0L
aVSLITNAME
p620
asVname
p621
VSlit
p622
sa(dp623
Vwidth
p624
L100L
sVfitsAttr
p625
(lp626
Vheaders
p627
aL0L
aVFILNAME
p628
asVname
p629
VFilter
p630
sa(dp631
Vwidth
p632
L60L
sVfitsAttr
p633
(lp634
Vheaders
p635
aL0L
aVECHLPOS
p636
asVname
p637
VEchelle Angle
p638
sa(dp639
Vwidth
p640
L60L
sVfitsAttr
p641
(lp642
Vheaders
p643
aL0L
aVDISPPOS
p644
asVname
p645
VX-disp Angle
p646
sasa(dp647
Vinstrument
p648
VHIRES
p649
sVname
p650
Vdefault
p651
sVcolumns
p652
(lp653
(dp654
Vwidth
p655
L150L
sVfitsAttr
p656
(lp657
Vfilename
p658
asVname
p659
VFilename
p660
sa(dp661
Vwidth
p662
L150L
sVfitsAttr
p663
(lp664
Vheaders
p665
aL0L
aVOBJECT
p666
asVname
p667
VObject
p668
sa(dp669
Vwidth
p670
L150L
sVfitsAttr
p671
(lp672
Vheaders
p673
aL0L
aVTARGNAME
p674
asVname
p675
VTarget
p676
sa(dp677
Vwidth
p678
L120L
sVfitsAttr
p679
(lp680
Vheaders
p681
aL0L
aVRA
p682
asVname
p683
VRA
p684
sa(dp685
Vwidth
p686
L120L
sVfitsAttr
p687
(lp688
Vheaders
p689
aL0L
aVDEC
p690
asVname
p691
VDEC
p692
sa(dp693
Vwidth
p694
L40L
sVfitsAttr
p695
(lp696
Vheaders
p697
aL0L
aVELAPTIME
p698
asVname
p699
VEXP(s)
p700
sa(dp701
Vwidth
p702
L60L
sVfitsAttr
p703
(lp704
Vheaders
p705
aL0L
aVAZ
p706
asVname
p707
VAZ
p708
sa(dp709
Vwidth
p710
L60L
sVfitsAttr
p711
(lp712
Vheaders
p713
aL0L
aVEL
p714
asVname
p715
VEL
p716
sa(dp717
Vwidth
p718
L100L
sVfitsAttr
p719
(lp720
Vheaders
p721
aL0L
aVECHANGL
p722
asVname
p723
VECHA
p724
sa(dp725
Vwidth
p726
L80L
sVfitsAttr
p727
(lp728
Vheaders
p729
aL0L
aVXDANGL
p730
asVname
p731
VXDA
p732
sa(dp733
Vwidth
p734
L60L
sVfitsAttr
p735
(lp736
Vheaders
p737
aL0L
aVDECKNAME
p738
asVname
p739
VDECKER
p740
sa(dp741
Vwidth
p742
L100L
sVfitsAttr
p743
(lp744
Vheaders
p745
aL0L
aVSLITWID
p746
asVname
p747
VApSIZE
p748
sa(dp749
Vwidth
p750
L100L
sVfitsAttr
p751
(lp752
Vheaders
p753
aL0L
aVFIL1NAME
p754
asVname
p755
VFilter 1
p756
sa(dp757
Vwidth
p758
L100L
sVfitsAttr
p759
(lp760
Vheaders
p761
aL0L
aVFIL2NAME
p762
asVname
p763
VFilter 2
p764
sa(dp765
Vwidth
p766
L100L
sVfitsAttr
p767
(lp768
Vheaders
p769
aL0L
aVSLITNAME
p770
asVname
p771
VSlit Name
p772
sa(dp773
Vwidth
p774
L100L
sVfitsAttr
p775
(lp776
Vheaders
p777
aL0L
aVCOFOCUS
p778
asVname
p779
VCOLL/Focus
p780
sa(dp781
Vwidth
p782
L50L
sVfitsAttr
p783
(lp784
Vheaders
p785
aL0L
aVAIRMASS
p786
asVname
p787
VAirmass
p788
sa(dp789
Vwidth
p790
L120L
sVfitsAttr
p791
(lp792
Vheaders
p793
aL0L
aVUTC
p794
asVname
p795
VUTC
p796
sa(dp797
Vwidth
p798
L120L
sVfitsAttr
p799
(lp800
Vheaders
p801
aL0L
aVHA
p802
asVname
p803
VHA
p804
sasa(dp805
Vinstrument
p806
VESI
p807
sVname
p808
Vdefault
p809
sVcolumns
p810
(lp811
(dp812
Vwidth
p813
L180L
sVfitsAttr
p814
(lp815
Vfilename
p816
asVname
p817
VFilename
p818
sa(dp819
Vwidth
p820
L150L
sVfitsAttr
p821
(lp822
Vheaders
p823
aL0L
aVOBJECT
p824
asVname
p825
VObject
p826
sa(dp827
Vwidth
p828
L120L
sVfitsAttr
p829
(lp830
Vheaders
p831
aL0L
aVUT
p832
asVname
p833
VUTC
p834
sa(dp835
Vdec2sexAttr
p836
(lp837
Vheaders
p838
aL0L
aVLST
p839
asVwidth
p840
L120L
sVname
p841
VLST
p842
sa(dp843
Vwidth
p844
L120L
sVfitsAttr
p845
(lp846
Vheaders
p847
aL0L
aVTTIME
p848
asVname
p849
VExp time
p850
sa(dp851
Vwidth
p852
L100L
sVmultiEnumAttr
p853
(dp854
Vout, out, in
p855
VEchellette
p856
sVtag
p857
Vmode
p858
sVout, in, in
p859
VLD
p860
sVattrs
p861
(lp862
(lp863
Vheaders
p864
aL0L
aVIMFLTNAM
p865
aa(lp866
Vheaders
p867
aL0L
aVLDFLTNAM
p868
aa(lp869
Vheaders
p870
aL0L
aVPRISMNAM
p871
aasVin, out, out
p872
VImaging
p873
ssVname
p874
VMode
p875
sa(dp876
Vwidth
p877
L120L
sVfitsAttr
p878
(lp879
Vheaders
p880
aL0L
aVSLMSKNAM
p881
asVname
p882
VSlit
p883
sa(dp884
Vwidth
p885
L90L
sVfitsAttr
p886
(lp887
Vheaders
p888
aL0L
aVDWFILNAM
p889
asVname
p890
VDW Filter
p891
sa(dp892
Vwidth
p893
L80L
sVfitsAttr
p894
(lp895
Vheaders
p896
aL0L
aVAPMSKNAM
p897
asVname
p898
VAP Mask
p899
sa(dp900
Vwidth
p901
L80L
sVfitsAttr
p902
(lp903
Vheaders
p904
aL0L
aVROTDEST
p905
asVname
p906
VPA
p907
sa(dp908
Vwidth
p909
L80L
sVfitsAttr
p910
(lp911
Vheaders
p912
aL0L
aVAIRMASS
p913
asVname
p914
VAirmass
p915
sasa(dp916
Vinstrument
p917
VDEIMOS
p918
sVname
p919
Vdeimos
p920
sVcolumns
p921
(lp922
(dp923
Vwidth
p924
L150L
sVfitsAttr
p925
(lp926
Vfilename
p927
asVname
p928
VFilename
p929
sa(dp930
Vwidth
p931
L150L
sVfitsAttr
p932
(lp933
Vheaders
p934
aL0L
aVOBJECT
p935
asVname
p936
VObject
p937
sa(dp938
Vwidth
p939
L120L
sVfitsAttr
p940
(lp941
Vheaders
p942
aL0L
aVLST
p943
asVname
p944
VLST
p945
sa(dp946
Vwidth
p947
L120L
sVfitsAttr
p948
(lp949
Vheaders
p950
aL0L
aVUTC
p951
asVname
p952
VUTC
p953
sa(dp954
Vwidth
p955
L120L
sVfitsAttr
p956
(lp957
Vheaders
p958
aL0L
aVRA
p959
asVname
p960
VRA
p961
sa(dp962
Vwidth
p963
L120L
sVfitsAttr
p964
(lp965
Vheaders
p966
aL0L
aVDEC
p967
asVname
p968
VDEC
p969
sa(dp970
Vwidth
p971
L100L
sVdecimals
p972
L2L
sVfitsAttr
p973
(lp974
Vheaders
p975
aL0L
aVAIRMASS
p976
asVname
p977
VAIRMASS
p978
sa(dp979
Vwidth
p980
L80L
sVfitsAttr
p981
(lp982
Vheaders
p983
aL0L
aVLAMPS
p984
asVname
p985
VLamps
p986
sa(dp987
Vwidth
p988
L100L
sVfitsAttr
p989
(lp990
Vheaders
p991
aL0L
aVSLMSKNAM
p992
asVname
p993
VSlitmask
p994
sa(dp995
Vwidth
p996
L90L
sVfitsAttr
p997
(lp998
Vheaders
p999
aL0L
aVGRATENAM
p1000
asVname
p1001
VGrating
p1002
sa(dp1003
Vwidth
p1004
L150L
sVname
p1005
VWavelength
p1006
sVcondAttr
p1007
(dp1008
V3
p1009
(lp1010
Vheaders
p1011
aL0L
aVG3TLTWAV
p1012
asVtag
p1013
VGXTLTWAV
p1014
sV4
p1015
(lp1016
Vheaders
p1017
aL0L
aVG4TLTWAV
p1018
asVattr
p1019
(lp1020
Vheaders
p1021
aL0L
aVGRATEPOS
p1022
assa(dp1023
Vwidth
p1024
L90L
sVfitsAttr
p1025
(lp1026
Vheaders
p1027
aL0L
aVDWFILNAM
p1028
asVname
p1029
VFilter
p1030
sa(dp1031
Vwidth
p1032
L50L
sVfitsAttr
p1033
(lp1034
Vheaders
p1035
aL0L
aVELAPTIME
p1036
asVname
p1037
VExp. Time
p1038
sa(dp1039
Vwidth
p1040
L80L
sVfitsAttr
p1041
(lp1042
Vheaders
p1043
aL0L
aVFCSMODE
p1044
asVname
p1045
VFcs
p1046
sasa(dp1047
Vinstrument
p1048
VMOSFIRE
p1049
sVname
p1050
Vdefault
p1051
sVcolumns
p1052
(lp1053
(dp1054
Vwidth
p1055
L150L
sVfitsAttr
p1056
(lp1057
Vfilename
p1058
asVname
p1059
VFilename
p1060
sa(dp1061
Vwidth
p1062
L150L
sVfitsAttr
p1063
(lp1064
Vheaders
p1065
aL0L
aVOBJECT
p1066
asVname
p1067
VObject
p1068
sa(dp1069
Vwidth
p1070
L60L
sVfitsAttr
p1071
(lp1072
Vheaders
p1073
aL0L
aVROTPOSN
p1074
asVname
p1075
VPA
p1076
sa(dp1077
Vwidth
p1078
L60L
sVfitsAttr
p1079
(lp1080
Vheaders
p1081
aL0L
aVSKYPA0
p1082
asVname
p1083
VCSU PA
p1084
sa(dp1085
Vwidth
p1086
L60L
sVfitsAttr
p1087
(lp1088
Vheaders
p1089
aL0L
aVSKYPA1
p1090
asVname
p1091
VGuider PA
p1092
sa(dp1093
Vwidth
p1094
L60L
sVfitsAttr
p1095
(lp1096
Vheaders
p1097
aL0L
aVSKYPA2
p1098
asVname
p1099
VSci PA
p1100
sa(dp1101
Vwidth
p1102
L60L
sVfitsAttr
p1103
(lp1104
Vheaders
p1105
aL0L
aVSKYPA3
p1106
asVname
p1107
VSlit PA
p1108
sa(dp1109
Vwidth
p1110
L120L
sVfitsAttr
p1111
(lp1112
Vheaders
p1113
aL0L
aVST
p1114
asVname
p1115
VLST
p1116
sa(dp1117
Vwidth
p1118
L120L
sVfitsAttr
p1119
(lp1120
Vheaders
p1121
aL0L
aVUTC
p1122
asVname
p1123
VUTC
p1124
sa(dp1125
Vwidth
p1126
L120L
sVfitsAttr
p1127
(lp1128
Vheaders
p1129
aL0L
aVOBSMODE
p1130
asVname
p1131
VMode
p1132
sa(dp1133
Vwidth
p1134
L60L
sVfitsAttr
p1135
(lp1136
Vheaders
p1137
aL0L
aVMF1NAME
p1138
asVname
p1139
VFW1
p1140
sa(dp1141
Vwidth
p1142
L60L
sVfitsAttr
p1143
(lp1144
Vheaders
p1145
aL0L
aVMF2NAME
p1146
asVname
p1147
VFW2
p1148
sa(dp1149
Vwidth
p1150
L60L
sVfitsAttr
p1151
(lp1152
Vheaders
p1153
aL0L
aVMASKNAME
p1154
asVname
p1155
VMask
p1156
sa(dp1157
Vwidth
p1158
L60L
sVfitsAttr
p1159
(lp1160
Vheaders
p1161
aL0L
aVITIME
p1162
asVname
p1163
VItime
p1164
sa(dp1165
Vwidth
p1166
L60L
sVfitsAttr
p1167
(lp1168
Vheaders
p1169
aL0L
aVCOADDS
p1170
asVname
p1171
VCoadds
p1172
sa(dp1173
Vwidth
p1174
L80L
sVname
p1175
VSampmode
p1176
sVenumAttr
p1177
(dp1178
V1
p1179
VSingle
p1180
sV3
p1181
VMCDS
p1182
sV2
p1183
VCDS
p1184
sV4
p1185
VUTR
p1186
sVattr
p1187
(lp1188
Vheaders
p1189
aL0L
aVSAMPMODE
p1190
assa(dp1191
Vwidth
p1192
L100L
sVfitsAttr
p1193
(lp1194
Vheaders
p1195
aL0L
aVPATTERN
p1196
asVname
p1197
VDither Pattern
p1198
sa(dp1199
Vwidth
p1200
L50L
sVfitsAttr
p1201
(lp1202
Vheaders
p1203
aL0L
aVFRAME
p1204
asVname
p1205
VFrame #
p1206
sa(dp1207
Vwidth
p1208
L50L
sVfitsAttr
p1209
(lp1210
Vheaders
p1211
aL0L
aVFRAMES
p1212
asVname
p1213
VTotal #
p1214
sa(dp1215
Vwidth
p1216
L100L
sVfitsAttr
p1217
(lp1218
Vheaders
p1219
aL0L
aVPONAME
p1220
asVname
p1221
VPointing Origin
p1222
sasa(dp1223
Vinstrument
p1224
VNIRC2
p1225
sVname
p1226
Vdefault
p1227
sVcolumns
p1228
(lp1229
(dp1230
Vwidth
p1231
L150L
sVfitsAttr
p1232
(lp1233
Vfilename
p1234
asVname
p1235
VFilename
p1236
sa(dp1237
Vwidth
p1238
L150L
sVfitsAttr
p1239
(lp1240
Vheaders
p1241
aL0L
aVOBJECT
p1242
asVname
p1243
VObject
p1244
sa(dp1245
Vwidth
p1246
L120L
sVfitsAttr
p1247
(lp1248
Vheaders
p1249
aL0L
aVUTC
p1250
asVname
p1251
VUT Time
p1252
sa(dp1253
Vwidth
p1254
L120L
sVfitsAttr
p1255
(lp1256
Vheaders
p1257
aL0L
aVFILTER
p1258
asVname
p1259
VFilter
p1260
sa(dp1261
Vwidth
p1262
L100L
sVdecimals
p1263
L2L
sVfitsAttr
p1264
(lp1265
Vheaders
p1266
aL0L
aVAIRMASS
p1267
asVname
p1268
VAIRMASS
p1269
sa(dp1270
Vwidth
p1271
L80L
sVfitsAttr
p1272
(lp1273
Vheaders
p1274
aL0L
aVCAMNAME
p1275
asVname
p1276
VCam
p1277
sa(dp1278
Vwidth
p1279
L100L
sVfitsAttr
p1280
(lp1281
Vheaders
p1282
aL0L
aVPMSNAME
p1283
asVname
p1284
VPupil
p1285
sa(dp1286
Vwidth
p1287
L60L
sVfitsAttr
p1288
(lp1289
Vheaders
p1290
aL0L
aVITIME
p1291
asVname
p1292
VItime
p1293
sa(dp1294
Vwidth
p1295
L60L
sVfitsAttr
p1296
(lp1297
Vheaders
p1298
aL0L
aVCOADDS
p1299
asVname
p1300
VCoadd
p1301
sa(dp1302
Vwidth
p1303
L100L
sVname
p1304
VSample Mode
p1305
sVenumAttr
p1306
(dp1307
V1
p1308
VSingle
p1309
sV3
p1310
VMCDS
p1311
sV2
p1312
VCDS
p1313
sVattr
p1314
(lp1315
Vheaders
p1316
aL0L
aVSAMPMODE
p1317
assa(dp1318
Vwidth
p1319
L60L
sVfitsAttr
p1320
(lp1321
Vheaders
p1322
aL0L
aVMULTISAM
p1323
asVname
p1324
V#Reads
p1325
sa(dp1326
Vwidth
p1327
L60L
sVfitsAttr
p1328
(lp1329
Vheaders
p1330
aL0L
aVROTPOSN
p1331
asVname
p1332
VPA
p1333
sa(dp1334
Vwidth
p1335
L60L
sVfitsAttr
p1336
(lp1337
Vheaders
p1338
aL0L
aVWSFRRT
p1339
asVname
p1340
VWFS Counts
p1341
sa(dp1342
Vwidth
p1343
L60L
sVfitsAttr
p1344
(lp1345
Vheaders
p1346
aL0L
aVAOAOAMED
p1347
asVname
p1348
VAO Rate
p1349
sasas.